target datalayout = "e-m:e-p270:32:32-p271:32:32-p272:64:64-i64:64-i128:128-f80:128-n8:16:32:64-S128"
target triple = "x86_64-pc-linux-gnu"

%struct.Vec_Int_t_ = type { i32, i32, ptr }
%struct.Vta_Man_t_ = type { ptr, ptr, i32, i32, i32, ptr, ptr, ptr, i32, i32, ptr, i32, i32, i32, ptr, ptr, i32, i32, ptr, ptr, ptr, i64, i64, i64, i64 }

; Function Attrs: inlinehint nounwind uwtable
define internal i32 @Vec_IntEntry(ptr noundef %0, i32 noundef %1) #2 {
  %3 = alloca ptr, align 8
  %4 = alloca i32, align 4
  store ptr %0, ptr %3, align 8, !tbaa !3
  store i32 %1, ptr %4, align 4, !tbaa !8
  %5 = load ptr, ptr %3, align 8, !tbaa !3
  %6 = getelementptr inbounds nuw %struct.Vec_Int_t_, ptr %5, i32 0, i32 2
  %7 = load ptr, ptr %6, align 8, !tbaa !15
  %8 = load i32, ptr %4, align 4, !tbaa !8
  %9 = sext i32 %8 to i64
  %10 = getelementptr inbounds i32, ptr %7, i64 %9
  %11 = load i32, ptr %10, align 4, !tbaa !8
  ret i32 %11
}

; Function Attrs: inlinehint nounwind uwtable
define internal i32 @Vec_IntSize(ptr noundef %0) #2 {
  %2 = alloca ptr, align 8
  store ptr %0, ptr %2, align 8, !tbaa !3
  %3 = load ptr, ptr %2, align 8, !tbaa !3
  %4 = getelementptr inbounds nuw %struct.Vec_Int_t_, ptr %3, i32 0, i32 1
  %5 = load i32, ptr %4, align 4, !tbaa !22
  ret i32 %5
}

; Function Attrs: nounwind uwtable
define void @Vga_ManLoadSlice(ptr noundef %0, ptr noundef %1, i32 noundef %2) #0 {
  %4 = alloca ptr, align 8
  %5 = alloca ptr, align 8
  %6 = alloca i32, align 4
  %7 = alloca i32, align 4
  %8 = alloca i32, align 4
  store ptr %0, ptr %4, align 8, !tbaa !37
  store ptr %1, ptr %5, align 8, !tbaa !3
  store i32 %2, ptr %6, align 4, !tbaa !8
  call void @llvm.lifetime.start.p0(i64 4, ptr %7) #13
  call void @llvm.lifetime.start.p0(i64 4, ptr %8) #13
  store i32 0, ptr %7, align 4, !tbaa !8
  br label %9

9:                                                ; preds = %34, %3
  %10 = load i32, ptr %7, align 4, !tbaa !8
  %11 = load ptr, ptr %5, align 8, !tbaa !3
  %12 = call i32 @Vec_IntSize(ptr noundef %11)
  %13 = icmp slt i32 %10, %12
  br i1 %13, label %14, label %18

14:                                               ; preds = %9
  %15 = load ptr, ptr %5, align 8, !tbaa !3
  %16 = load i32, ptr %7, align 4, !tbaa !8
  %17 = call i32 @Vec_IntEntry(ptr noundef %15, i32 noundef %16)
  store i32 %17, ptr %8, align 4, !tbaa !8
  br label %18

18:                                               ; preds = %14, %9
  %19 = phi i1 [ false, %9 ], [ true, %14 ]
  br i1 %19, label %20, label %37

20:                                               ; preds = %18
  %21 = load ptr, ptr %4, align 8, !tbaa !37
  %22 = load i32, ptr %8, align 4, !tbaa !8
  %23 = load ptr, ptr %4, align 8, !tbaa !37
  %24 = getelementptr inbounds nuw %struct.Vta_Man_t_, ptr %23, i32 0, i32 9
  %25 = load i32, ptr %24, align 4, !tbaa !133
  %26 = and i32 %22, %25
  %27 = load i32, ptr %8, align 4, !tbaa !8
  %28 = load ptr, ptr %4, align 8, !tbaa !37
  %29 = getelementptr inbounds nuw %struct.Vta_Man_t_, ptr %28, i32 0, i32 8
  %30 = load i32, ptr %29, align 8, !tbaa !94
  %31 = ashr i32 %27, %30
  %32 = load i32, ptr %6, align 4, !tbaa !8
  %33 = add nsw i32 %31, %32
  call void @Vga_ManAddClausesOne(ptr noundef %21, i32 noundef %26, i32 noundef %33)
  br label %34

34:                                               ; preds = %20
  %35 = load i32, ptr %7, align 4, !tbaa !8
  %36 = add nsw i32 %35, 1
  store i32 %36, ptr %7, align 4, !tbaa !8
  br label %9, !llvm.loop !176

37:                                               ; preds = %18
  %38 = load ptr, ptr %4, align 8, !tbaa !37
  %39 = getelementptr inbounds nuw %struct.Vta_Man_t_, ptr %38, i32 0, i32 19
  %40 = load ptr, ptr %39, align 8, !tbaa !62
  %41 = call i32 @sat_solver2_simplify(ptr noundef %40)
  call void @llvm.lifetime.end.p0(i64 4, ptr %8) #13
  call void @llvm.lifetime.end.p0(i64 4, ptr %7) #13
  ret void
}