; Function Attrs: nounwind uwtable
define void @Vga_ManLoadSlice(ptr noundef captures(none) %0, ptr noundef readonly captures(none) %1, i32 noundef %2) local_unnamed_addr #0 {
  %4 = getelementptr i8, ptr %1, i64 4
  %.val1112 = load i32, ptr %4, align 4, !tbaa !15
  %5 = icmp sgt i32 %.val1112, 0
  br i1 %5, label %.lr.ph, label %.critedge

.lr.ph:                                           ; preds = %3
  %6 = getelementptr i8, ptr %1, i64 8
  %7 = getelementptr inbounds nuw i8, ptr %0, i64 60
  %8 = getelementptr inbounds nuw i8, ptr %0, i64 56
  br label %9

9:                                                ; preds = %.lr.ph, %9
  %indvars.iv = phi i64 [ 0, %.lr.ph ], [ %indvars.iv.next, %9 ]
  %.val = load ptr, ptr %6, align 8, !tbaa !3
  %10 = getelementptr inbounds nuw i32, ptr %.val, i64 %indvars.iv
  %11 = load i32, ptr %10, align 4, !tbaa !10
  %12 = load i32, ptr %7, align 4, !tbaa !122
  %13 = and i32 %12, %11
  %14 = load i32, ptr %8, align 8, !tbaa !83
  %15 = ashr i32 %11, %14
  %16 = add nsw i32 %15, %2
  tail call void @Vga_ManAddClausesOne(ptr noundef %0, i32 noundef %13, i32 noundef %16)
  %indvars.iv.next = add nuw nsw i64 %indvars.iv, 1
  %.val11 = load i32, ptr %4, align 4, !tbaa !15
  %17 = sext i32 %.val11 to i64
  %18 = icmp slt i64 %indvars.iv.next, %17
  br i1 %18, label %9, label %.critedge, !llvm.loop !164

.critedge:                                        ; preds = %9, %3
  %19 = getelementptr inbounds nuw i8, ptr %0, i64 120
  %20 = load ptr, ptr %19, align 8, !tbaa !66
  %21 = tail call i32 @sat_solver2_simplify(ptr noundef %20) #28
  ret void
}